target datalayout = "e-m:e-p270:32:32-p271:32:32-p272:64:64-i64:64-i128:128-f80:128-n8:16:32:64-S128"
target triple = "x86_64-pc-linux-gnu"

%class.QString = type { %struct.QArrayDataPointer.0 }
%struct.QArrayDataPointer.0 = type { ptr, ptr, i64 }
%class.QList.1 = type { %struct.QArrayDataPointer.4 }
%struct.QArrayDataPointer.4 = type { ptr, ptr, i64 }
%class.WiresharkMainWindow = type { %class.MainWindow, ptr, %class.CaptureFile, %class.QFont, %class.QMap, ptr, ptr, ptr, ptr, ptr, ptr, %class.QList.9, %class.QPointer, %class.QMap.13, %class.QMap.15, i8, %class.QString, i8, i8, i8, %class.QPoint, %class.QPointer.17 }
%class.MainWindow = type { %class.QMainWindow, %class.QList.1, ptr, ptr, %class.QSplitter, %class.QSplitter, %class.QWidget, %class.QList.5, ptr, ptr, ptr, ptr, ptr, ptr }
%class.QMainWindow = type { %class.QWidget }
%class.QSplitter = type { %class.QFrame }
%class.QFrame = type { %class.QWidget }
%class.QWidget = type { %class.QObject, %class.QPaintDevice.base, ptr }
%class.QObject = type { ptr, %class.QScopedPointer }
%class.QScopedPointer = type { ptr }
%class.QPaintDevice.base = type <{ ptr, i16 }>
%class.QList.5 = type { %struct.QArrayDataPointer.8 }
%struct.QArrayDataPointer.8 = type { ptr, ptr, i64 }
%class.CaptureFile = type { %class.QObject, ptr, %class.QString }
%class.QFont = type <{ %class.QExplicitlySharedDataPointer, i32, [4 x i8] }>
%class.QExplicitlySharedDataPointer = type { ptr }
%class.QMap = type { %"class.QtPrivate::QExplicitlySharedDataPointerV2" }
%"class.QtPrivate::QExplicitlySharedDataPointerV2" = type { ptr }
%class.QList.9 = type { %struct.QArrayDataPointer.12 }
%struct.QArrayDataPointer.12 = type { ptr, ptr, i64 }
%class.QPointer = type { %class.QWeakPointer }
%class.QWeakPointer = type { ptr, ptr }
%class.QMap.13 = type { %"class.QtPrivate::QExplicitlySharedDataPointerV2.14" }
%"class.QtPrivate::QExplicitlySharedDataPointerV2.14" = type { ptr }
%class.QMap.15 = type { %"class.QtPrivate::QExplicitlySharedDataPointerV2.16" }
%"class.QtPrivate::QExplicitlySharedDataPointerV2.16" = type { ptr }
%class.QPoint = type { i32, i32 }
%class.QPointer.17 = type { %class.QWeakPointer }
%class.Ui_WiresharkMainWindow = type { ptr, ptr, ptr, ptr, ptr, ptr, ptr, ptr, ptr, ptr, ptr, ptr, ptr, ptr, ptr, ptr, ptr, ptr, ptr, ptr, ptr, ptr, ptr, ptr, ptr, ptr, ptr, ptr, ptr, ptr, ptr, ptr, ptr, ptr, ptr, ptr, ptr, ptr, ptr, ptr, ptr, ptr, ptr, ptr, ptr, ptr, ptr, ptr, ptr, ptr, ptr, ptr, ptr, ptr, ptr, ptr, ptr, ptr, ptr, ptr, ptr, ptr, ptr, ptr, ptr, ptr, ptr, ptr, ptr, ptr, ptr, ptr, ptr, ptr, ptr, ptr, ptr, ptr, ptr, ptr, ptr, ptr, ptr, ptr, ptr, ptr, ptr, ptr, ptr, ptr, ptr, ptr, ptr, ptr, ptr, ptr, ptr, ptr, ptr, ptr, ptr, ptr, ptr, ptr, ptr, ptr, ptr, ptr, ptr, ptr, ptr, ptr, ptr, ptr, ptr, ptr, ptr, ptr, ptr, ptr, ptr, ptr, ptr, ptr, ptr, ptr, ptr, ptr, ptr, ptr, ptr, ptr, ptr, ptr, ptr, ptr, ptr, ptr, ptr, ptr, ptr, ptr, ptr, ptr, ptr, ptr, ptr, ptr, ptr, ptr, ptr, ptr, ptr, ptr, ptr, ptr, ptr, ptr, ptr, ptr, ptr, ptr, ptr, ptr, ptr, ptr, ptr, ptr, ptr, ptr, ptr, ptr, ptr, ptr, ptr, ptr, ptr, ptr, ptr, ptr, ptr, ptr, ptr, ptr, ptr, ptr, ptr, ptr, ptr, ptr, ptr, ptr, ptr, ptr, ptr, ptr, ptr, ptr, ptr, ptr, ptr, ptr, ptr, ptr, ptr, ptr, ptr, ptr, ptr, ptr, ptr, ptr, ptr, ptr, ptr, ptr, ptr, ptr, ptr, ptr, ptr, ptr, ptr, ptr, ptr, ptr, ptr, ptr, ptr, ptr, ptr, ptr, ptr, ptr, ptr, ptr, ptr, ptr, ptr, ptr, ptr, ptr, ptr, ptr, ptr, ptr, ptr, ptr, ptr, ptr, ptr, ptr, ptr, ptr, ptr, ptr, ptr, ptr, ptr, ptr, ptr, ptr, ptr, ptr, ptr, ptr, ptr, ptr, ptr, ptr, ptr, ptr, ptr, ptr, ptr, ptr, ptr, ptr, ptr, ptr, ptr, ptr, ptr, ptr, ptr, ptr, ptr, ptr, ptr, ptr, ptr, ptr, ptr, ptr, ptr, ptr, ptr, ptr, ptr, ptr, ptr, ptr, ptr, ptr, ptr, ptr, ptr, ptr, ptr, ptr, ptr, ptr, ptr, ptr, ptr, ptr, ptr, ptr, ptr, ptr, ptr, ptr }
%class.QFlags.51 = type { i32 }
%class.QEvent = type { ptr, i16, i8, i8, i8, i8, i16 }
%class.QKeyEvent = type <{ %class.QInputEvent, %class.QString, i32, i32, i32, i32, i16, [6 x i8] }>
%class.QInputEvent = type { %class.QEvent, ptr, i64, %class.QFlags.51, i32 }
%class.QFlag = type { i32 }

; Function Attrs: mustprogress nounwind uwtable
define linkonce_odr noundef i32 @_ZNK5QFlagcvjEv(ptr noundef nonnull align 4 dereferenceable(4) %0) #2 comdat align 2 {
  %2 = alloca ptr, align 8
  store ptr %0, ptr %2, align 8
  %3 = load ptr, ptr %2, align 8
  %4 = getelementptr inbounds %class.QFlag, ptr %3, i32 0, i32 0
  %5 = load i32, ptr %4, align 4
  ret i32 %5
}

; Function Attrs: mustprogress nounwind uwtable
define linkonce_odr noundef zeroext i1 @_Zeq6QFlagsIN2Qt16KeyboardModifierEES2_(i32 %0, i32 %1) #2 comdat {
  %3 = alloca %class.QFlags.51, align 4
  %4 = alloca %class.QFlags.51, align 4
  %5 = getelementptr inbounds %class.QFlags.51, ptr %3, i32 0, i32 0
  store i32 %0, ptr %5, align 4
  %6 = getelementptr inbounds %class.QFlags.51, ptr %4, i32 0, i32 0
  store i32 %1, ptr %6, align 4
  %7 = getelementptr inbounds %class.QFlags.51, ptr %3, i32 0, i32 0
  %8 = load i32, ptr %7, align 4
  %9 = getelementptr inbounds %class.QFlags.51, ptr %4, i32 0, i32 0
  %10 = load i32, ptr %9, align 4
  %11 = icmp eq i32 %8, %10
  ret i1 %11
}

; Function Attrs: mustprogress nounwind uwtable
define linkonce_odr void @_ZN6QFlagsIN2Qt16KeyboardModifierEEC2ES1_(ptr noundef nonnull align 4 dereferenceable(4) %0, i32 noundef %1) unnamed_addr #2 comdat align 2 {
  %3 = alloca ptr, align 8
  %4 = alloca i32, align 4
  store ptr %0, ptr %3, align 8
  store i32 %1, ptr %4, align 4
  %5 = load ptr, ptr %3, align 8
  %6 = getelementptr inbounds %class.QFlags.51, ptr %5, i32 0, i32 0
  %7 = load i32, ptr %4, align 4
  store i32 %7, ptr %6, align 4
  ret void
}

; Function Attrs: mustprogress nounwind uwtable
define linkonce_odr void @_ZN6QFlagsIN2Qt16KeyboardModifierEEC2E5QFlag(ptr noundef nonnull align 4 dereferenceable(4) %0, i32 %1) unnamed_addr #2 comdat align 2 {
  %3 = alloca %class.QFlag, align 4
  %4 = alloca ptr, align 8
  %5 = getelementptr inbounds %class.QFlag, ptr %3, i32 0, i32 0
  store i32 %1, ptr %5, align 4
  store ptr %0, ptr %4, align 8
  %6 = load ptr, ptr %4, align 8
  %7 = getelementptr inbounds %class.QFlags.51, ptr %6, i32 0, i32 0
  %8 = call noundef i32 @_ZNK5QFlagcvjEv(ptr noundef nonnull align 4 dereferenceable(4) %3) #20
  store i32 %8, ptr %7, align 4
  ret void
}

; Function Attrs: mustprogress nounwind uwtable
define linkonce_odr void @_ZN5QFlagC2Ej(ptr noundef nonnull align 4 dereferenceable(4) %0, i32 noundef %1) unnamed_addr #2 comdat align 2 {
  %3 = alloca ptr, align 8
  %4 = alloca i32, align 4
  store ptr %0, ptr %3, align 8
  store i32 %1, ptr %4, align 4
  %5 = load ptr, ptr %3, align 8
  %6 = getelementptr inbounds %class.QFlag, ptr %5, i32 0, i32 0
  %7 = load i32, ptr %4, align 4
  store i32 %7, ptr %6, align 4
  ret void
}

; Function Attrs: mustprogress nounwind uwtable
define linkonce_odr noundef zeroext i1 @_Zeq6QFlagsIN2Qt16KeyboardModifierEES1_(i32 %0, i32 noundef %1) #2 comdat {
  %3 = alloca %class.QFlags.51, align 4
  %4 = alloca i32, align 4
  %5 = alloca %class.QFlags.51, align 4
  %6 = alloca %class.QFlags.51, align 4
  %7 = getelementptr inbounds %class.QFlags.51, ptr %3, i32 0, i32 0
  store i32 %0, ptr %7, align 4
  store i32 %1, ptr %4, align 4
  call void @llvm.memcpy.p0.p0.i64(ptr align 4 %5, ptr align 4 %3, i64 4, i1 false)
  %8 = load i32, ptr %4, align 4
  call void @_ZN6QFlagsIN2Qt16KeyboardModifierEEC2ES1_(ptr noundef nonnull align 4 dereferenceable(4) %6, i32 noundef %8) #20
  %9 = getelementptr inbounds %class.QFlags.51, ptr %5, i32 0, i32 0
  %10 = load i32, ptr %9, align 4
  %11 = getelementptr inbounds %class.QFlags.51, ptr %6, i32 0, i32 0
  %12 = load i32, ptr %11, align 4
  %13 = call noundef zeroext i1 @_Zeq6QFlagsIN2Qt16KeyboardModifierEES2_(i32 %10, i32 %12) #20
  ret i1 %13
}

; Function Attrs: mustprogress nounwind uwtable
define linkonce_odr noundef i32 @_ZNK9QKeyEvent3keyEv(ptr noundef nonnull align 8 dereferenceable(82) %0) #2 comdat align 2 {
  %2 = alloca ptr, align 8
  store ptr %0, ptr %2, align 8
  %3 = load ptr, ptr %2, align 8
  %4 = getelementptr inbounds %class.QKeyEvent, ptr %3, i32 0, i32 2
  %5 = load i32, ptr %4, align 8
  ret i32 %5
}

; Function Attrs: mustprogress nounwind uwtable
define linkonce_odr noundef i32 @_ZNK6QFlagsIN2Qt16KeyboardModifierEEcvjEv(ptr noundef nonnull align 4 dereferenceable(4) %0) #2 comdat align 2 {
  %2 = alloca ptr, align 8
  store ptr %0, ptr %2, align 8
  %3 = load ptr, ptr %2, align 8
  %4 = getelementptr inbounds %class.QFlags.51, ptr %3, i32 0, i32 0
  %5 = load i32, ptr %4, align 4
  ret i32 %5
}

; Function Attrs: mustprogress nounwind uwtable
define linkonce_odr i32 @_ZNK6QFlagsIN2Qt16KeyboardModifierEEanES1_(ptr noundef nonnull align 4 dereferenceable(4) %0, i32 noundef %1) #2 comdat align 2 {
  %3 = alloca %class.QFlags.51, align 4
  %4 = alloca ptr, align 8
  %5 = alloca i32, align 4
  %6 = alloca %class.QFlag, align 4
  store ptr %0, ptr %4, align 8
  store i32 %1, ptr %5, align 4
  %7 = load ptr, ptr %4, align 8
  %8 = getelementptr inbounds %class.QFlags.51, ptr %7, i32 0, i32 0
  %9 = load i32, ptr %8, align 4
  %10 = load i32, ptr %5, align 4
  %11 = and i32 %9, %10
  call void @_ZN5QFlagC2Ej(ptr noundef nonnull align 4 dereferenceable(4) %6, i32 noundef %11) #20
  %12 = getelementptr inbounds %class.QFlag, ptr %6, i32 0, i32 0
  %13 = load i32, ptr %12, align 4
  call void @_ZN6QFlagsIN2Qt16KeyboardModifierEEC2E5QFlag(ptr noundef nonnull align 4 dereferenceable(4) %3, i32 %13) #20
  %14 = getelementptr inbounds %class.QFlags.51, ptr %3, i32 0, i32 0
  %15 = load i32, ptr %14, align 4
  ret i32 %15
}

; Function Attrs: mustprogress uwtable
define void @_ZN19WiresharkMainWindow13keyPressEventEP9QKeyEvent(ptr noundef nonnull align 8 dereferenceable(520) %0, ptr noundef %1) unnamed_addr #0 align 2 {
  %3 = alloca ptr, align 8
  %4 = alloca ptr, align 8
  %5 = alloca %class.QFlags.51, align 4
  %6 = alloca %class.QFlags.51, align 4
  %7 = alloca %class.QFlags.51, align 4
  store ptr %0, ptr %3, align 8
  store ptr %1, ptr %4, align 8
  %8 = load ptr, ptr %3, align 8
  %9 = load ptr, ptr %4, align 8
  %10 = call i32 @_ZNK9QKeyEvent9modifiersEv(ptr noundef nonnull align 8 dereferenceable(82) %9)
  %11 = getelementptr inbounds %class.QFlags.51, ptr %6, i32 0, i32 0
  store i32 %10, ptr %11, align 4
  %12 = call i32 @_ZNK6QFlagsIN2Qt16KeyboardModifierEEanES1_(ptr noundef nonnull align 4 dereferenceable(4) %6, i32 noundef 67108864) #20
  %13 = getelementptr inbounds %class.QFlags.51, ptr %5, i32 0, i32 0
  store i32 %12, ptr %13, align 4
  %14 = call noundef i32 @_ZNK6QFlagsIN2Qt16KeyboardModifierEEcvjEv(ptr noundef nonnull align 4 dereferenceable(4) %5) #20
  %15 = icmp ne i32 %14, 0
  br i1 %15, label %16, label %20

16:                                               ; preds = %2
  %17 = load ptr, ptr %4, align 8
  %18 = call noundef i32 @_ZNK9QKeyEvent3keyEv(ptr noundef nonnull align 8 dereferenceable(82) %17)
  %19 = icmp eq i32 %18, 47
  br label %20

20:                                               ; preds = %16, %2
  %21 = phi i1 [ false, %2 ], [ %19, %16 ]
  br i1 %21, label %22, label %25

22:                                               ; preds = %20
  %23 = getelementptr inbounds %class.MainWindow, ptr %8, i32 0, i32 12
  %24 = load ptr, ptr %23, align 8
  call void @_ZN7QWidget8setFocusEN2Qt11FocusReasonE(ptr noundef nonnull align 8 dereferenceable(40) %24, i32 noundef 5)
  br label %73

25:                                               ; preds = %20
  %26 = call noundef ptr @_ZN12QApplication11focusWidgetEv()
  %27 = getelementptr inbounds %class.WiresharkMainWindow, ptr %8, i32 0, i32 1
  %28 = load ptr, ptr %27, align 8
  %29 = getelementptr inbounds %class.Ui_WiresharkMainWindow, ptr %28, i32 0, i32 256
  %30 = load ptr, ptr %29, align 8
  %31 = icmp eq ptr %26, %30
  br i1 %31, label %32, label %56

32:                                               ; preds = %25
  %33 = load ptr, ptr %4, align 8
  %34 = call i32 @_ZNK9QKeyEvent9modifiersEv(ptr noundef nonnull align 8 dereferenceable(82) %33)
  %35 = getelementptr inbounds %class.QFlags.51, ptr %7, i32 0, i32 0
  store i32 %34, ptr %35, align 4
  %36 = getelementptr inbounds %class.QFlags.51, ptr %7, i32 0, i32 0
  %37 = load i32, ptr %36, align 4
  %38 = call noundef zeroext i1 @_Zeq6QFlagsIN2Qt16KeyboardModifierEES1_(i32 %37, i32 noundef 0) #20
  br i1 %38, label %39, label %55

39:                                               ; preds = %32
  %40 = load ptr, ptr %4, align 8
  %41 = call noundef i32 @_ZNK9QKeyEvent3keyEv(ptr noundef nonnull align 8 dereferenceable(82) %40)
  %42 = icmp eq i32 %41, 16777216
  br i1 %42, label %43, label %44

43:                                               ; preds = %39
  call void @_ZN19WiresharkMainWindow17goToCancelClickedEv(ptr noundef nonnull align 8 dereferenceable(520) %8)
  br label %54

44:                                               ; preds = %39
  %45 = load ptr, ptr %4, align 8
  %46 = call noundef i32 @_ZNK9QKeyEvent3keyEv(ptr noundef nonnull align 8 dereferenceable(82) %45)
  %47 = icmp eq i32 %46, 16777221
  br i1 %47, label %52, label %48

48:                                               ; preds = %44
  %49 = load ptr, ptr %4, align 8
  %50 = call noundef i32 @_ZNK9QKeyEvent3keyEv(ptr noundef nonnull align 8 dereferenceable(82) %49)
  %51 = icmp eq i32 %50, 16777220
  br i1 %51, label %52, label %53

52:                                               ; preds = %48, %44
  call void @_ZN19WiresharkMainWindow13goToGoClickedEv(ptr noundef nonnull align 8 dereferenceable(520) %8)
  br label %53

53:                                               ; preds = %52, %48
  br label %54

54:                                               ; preds = %53, %43
  br label %55

55:                                               ; preds = %54, %32
  br label %73

56:                                               ; preds = %25
  %57 = load ptr, ptr %4, align 8
  %58 = call noundef i32 @_ZNK9QKeyEvent3keyEv(ptr noundef nonnull align 8 dereferenceable(82) %57)
  %59 = icmp eq i32 %58, 16777270
  br i1 %59, label %60, label %63

60:                                               ; preds = %56
  %61 = getelementptr inbounds %class.MainWindow, ptr %8, i32 0, i32 8
  %62 = load ptr, ptr %61, align 8
  call void @_ZN10PacketList16goPreviousPacketEv(ptr noundef nonnull align 8 dereferenceable(464) %62)
  br label %71

63:                                               ; preds = %56
  %64 = load ptr, ptr %4, align 8
  %65 = call noundef i32 @_ZNK9QKeyEvent3keyEv(ptr noundef nonnull align 8 dereferenceable(82) %64)
  %66 = icmp eq i32 %65, 16777271
  br i1 %66, label %67, label %70

67:                                               ; preds = %63
  %68 = getelementptr inbounds %class.MainWindow, ptr %8, i32 0, i32 8
  %69 = load ptr, ptr %68, align 8
  call void @_ZN10PacketList12goNextPacketEv(ptr noundef nonnull align 8 dereferenceable(464) %69)
  br label %70

70:                                               ; preds = %67, %63
  br label %71

71:                                               ; preds = %70, %60
  %72 = load ptr, ptr %4, align 8
  call void @_ZN7QWidget13keyPressEventEP9QKeyEvent(ptr noundef nonnull align 8 dereferenceable(40) %8, ptr noundef %72)
  br label %73

73:                                               ; preds = %71, %55, %22
  ret void
}