; Function Attrs: mustprogress uwtable
define void @_ZN19WiresharkMainWindow13keyPressEventEP9QKeyEvent(ptr noundef nonnull align 8 dereferenceable(520) %0, ptr noundef nonnull %1) unnamed_addr #0 align 2 {
  %3 = tail call i32 @_ZNK9QKeyEvent9modifiersEv(ptr noundef nonnull align 8 dereferenceable(82) %1)
  %4 = and i32 %3, 67108864
  %.not = icmp eq i32 %4, 0
  br i1 %.not, label %.critedge, label %5

5:                                                ; preds = %2
  %6 = getelementptr inbounds i8, ptr %1, i64 64
  %7 = load i32, ptr %6, align 8
  %8 = icmp eq i32 %7, 47
  br i1 %8, label %9, label %.critedge

9:                                                ; preds = %5
  %10 = getelementptr inbounds i8, ptr %0, i64 256
  %11 = load ptr, ptr %10, align 8
  tail call void @_ZN7QWidget8setFocusEN2Qt11FocusReasonE(ptr noundef nonnull align 8 dereferenceable(40) %11, i32 noundef 5)
  br label %36

.critedge:                                        ; preds = %2, %5
  %12 = tail call noundef ptr @_ZN12QApplication11focusWidgetEv()
  %13 = getelementptr inbounds i8, ptr %0, i64 272
  %14 = load ptr, ptr %13, align 8
  %15 = getelementptr inbounds i8, ptr %14, i64 2048
  %16 = load ptr, ptr %15, align 8
  %17 = icmp eq ptr %12, %16
  br i1 %17, label %18, label %26

18:                                               ; preds = %.critedge
  %19 = tail call i32 @_ZNK9QKeyEvent9modifiersEv(ptr noundef nonnull align 8 dereferenceable(82) %1)
  %20 = icmp eq i32 %19, 0
  br i1 %20, label %21, label %36

21:                                               ; preds = %18
  %22 = getelementptr inbounds i8, ptr %1, i64 64
  %23 = load i32, ptr %22, align 8
  switch i32 %23, label %36 [
    i32 16777216, label %24
    i32 16777221, label %25
    i32 16777220, label %25
  ]

24:                                               ; preds = %21
  tail call void @_ZN19WiresharkMainWindow17goToCancelClickedEv(ptr noundef nonnull align 8 dereferenceable(520) %0)
  br label %36

25:                                               ; preds = %21, %21
  tail call void @_ZN19WiresharkMainWindow13goToGoClickedEv(ptr noundef nonnull align 8 dereferenceable(520) %0)
  br label %36

26:                                               ; preds = %.critedge
  %27 = getelementptr inbounds i8, ptr %1, i64 64
  %28 = load i32, ptr %27, align 8
  switch i32 %28, label %35 [
    i32 16777270, label %29
    i32 16777271, label %32
  ]

29:                                               ; preds = %26
  %30 = getelementptr inbounds i8, ptr %0, i64 224
  %31 = load ptr, ptr %30, align 8
  tail call void @_ZN10PacketList16goPreviousPacketEv(ptr noundef nonnull align 8 dereferenceable(464) %31)
  br label %35

32:                                               ; preds = %26
  %33 = getelementptr inbounds i8, ptr %0, i64 224
  %34 = load ptr, ptr %33, align 8
  tail call void @_ZN10PacketList12goNextPacketEv(ptr noundef nonnull align 8 dereferenceable(464) %34)
  br label %35

35:                                               ; preds = %26, %32, %29
  tail call void @_ZN7QWidget13keyPressEventEP9QKeyEvent(ptr noundef nonnull align 8 dereferenceable(40) %0, ptr noundef nonnull %1)
  br label %36

36:                                               ; preds = %21, %18, %25, %24, %35, %9
  ret void
}